target datalayout = "e-m:e-p270:32:32-p271:32:32-p272:64:64-i64:64-i128:128-f80:128-n8:16:32:64-S128"
target triple = "x86_64-pc-linux-gnu"

%struct.prov_aes_hmac_sha_ctx_st = type { %struct.prov_cipher_ctx_st, %struct.aes_key_st, i64, %union.anon.0, ptr, i32, i32, i64, i64, i64 }
%struct.prov_cipher_ctx_st = type { [16 x i8], [16 x i8], [16 x i8], ptr, %union.anon, i32, i64, i64, i64, i64, i32, i8, i32, ptr, i32, i64, i32, i64, i32, ptr, ptr, ptr }
%union.anon = type { ptr }
%struct.aes_key_st = type { [60 x i32], i32 }
%union.anon.0 = type { i32, [12 x i8] }
%struct.prov_aes_hmac_sha256_ctx_st = type { %struct.prov_aes_hmac_sha_ctx_st, %struct.SHA256state_st, %struct.SHA256state_st, %struct.SHA256state_st }
%struct.SHA256state_st = type { [8 x i32], i32, i32, [16 x i32], i32, i32 }
%struct.EVP_CTRL_TLS1_1_MULTIBLOCK_PARAM = type { ptr, ptr, i64, i32 }

@OPENSSL_ia32cap_P = external global [0 x i32], align 4

; Function Attrs: nounwind uwtable
define internal void @sha256_update(ptr noundef %0, ptr noundef %1, i64 noundef %2) #0 {
  %4 = alloca ptr, align 8
  %5 = alloca ptr, align 8
  %6 = alloca i64, align 8
  %7 = alloca ptr, align 8
  %8 = alloca i64, align 8
  store ptr %0, ptr %4, align 8, !tbaa !61
  store ptr %1, ptr %5, align 8, !tbaa !37
  store i64 %2, ptr %6, align 8, !tbaa !12
  call void @llvm.lifetime.start.p0(i64 8, ptr %7) #7
  %9 = load ptr, ptr %5, align 8, !tbaa !37
  store ptr %9, ptr %7, align 8, !tbaa !10
  call void @llvm.lifetime.start.p0(i64 8, ptr %8) #7
  %10 = load ptr, ptr %4, align 8, !tbaa !61
  %11 = getelementptr inbounds nuw %struct.SHA256state_st, ptr %10, i32 0, i32 4
  %12 = load i32, ptr %11, align 4, !tbaa !63
  %13 = zext i32 %12 to i64
  store i64 %13, ptr %8, align 8, !tbaa !12
  %14 = icmp ne i64 %13, 0
  br i1 %14, label %15, label %34

15:                                               ; preds = %3
  %16 = load i64, ptr %8, align 8, !tbaa !12
  %17 = sub i64 64, %16
  store i64 %17, ptr %8, align 8, !tbaa !12
  %18 = load i64, ptr %6, align 8, !tbaa !12
  %19 = load i64, ptr %8, align 8, !tbaa !12
  %20 = icmp ult i64 %18, %19
  br i1 %20, label %21, label %23

21:                                               ; preds = %15
  %22 = load i64, ptr %6, align 8, !tbaa !12
  store i64 %22, ptr %8, align 8, !tbaa !12
  br label %23

23:                                               ; preds = %21, %15
  %24 = load ptr, ptr %4, align 8, !tbaa !61
  %25 = load ptr, ptr %7, align 8, !tbaa !10
  %26 = load i64, ptr %8, align 8, !tbaa !12
  %27 = call i32 @SHA256_Update(ptr noundef %24, ptr noundef %25, i64 noundef %26)
  %28 = load i64, ptr %8, align 8, !tbaa !12
  %29 = load ptr, ptr %7, align 8, !tbaa !10
  %30 = getelementptr inbounds nuw i8, ptr %29, i64 %28
  store ptr %30, ptr %7, align 8, !tbaa !10
  %31 = load i64, ptr %8, align 8, !tbaa !12
  %32 = load i64, ptr %6, align 8, !tbaa !12
  %33 = sub i64 %32, %31
  store i64 %33, ptr %6, align 8, !tbaa !12
  br label %34

34:                                               ; preds = %23, %3
  %35 = load i64, ptr %6, align 8, !tbaa !12
  %36 = urem i64 %35, 64
  store i64 %36, ptr %8, align 8, !tbaa !12
  %37 = load i64, ptr %8, align 8, !tbaa !12
  %38 = load i64, ptr %6, align 8, !tbaa !12
  %39 = sub i64 %38, %37
  store i64 %39, ptr %6, align 8, !tbaa !12
  %40 = load i64, ptr %6, align 8, !tbaa !12
  %41 = icmp ne i64 %40, 0
  br i1 %41, label %42, label %78

42:                                               ; preds = %34
  %43 = load ptr, ptr %4, align 8, !tbaa !61
  %44 = load ptr, ptr %7, align 8, !tbaa !10
  %45 = load i64, ptr %6, align 8, !tbaa !12
  %46 = udiv i64 %45, 64
  call void @sha256_block_data_order(ptr noundef %43, ptr noundef %44, i64 noundef %46)
  %47 = load i64, ptr %6, align 8, !tbaa !12
  %48 = load ptr, ptr %7, align 8, !tbaa !10
  %49 = getelementptr inbounds nuw i8, ptr %48, i64 %47
  store ptr %49, ptr %7, align 8, !tbaa !10
  %50 = load i64, ptr %6, align 8, !tbaa !12
  %51 = lshr i64 %50, 29
  %52 = load ptr, ptr %4, align 8, !tbaa !61
  %53 = getelementptr inbounds nuw %struct.SHA256state_st, ptr %52, i32 0, i32 2
  %54 = load i32, ptr %53, align 4, !tbaa !64
  %55 = zext i32 %54 to i64
  %56 = add i64 %55, %51
  %57 = trunc i64 %56 to i32
  store i32 %57, ptr %53, align 4, !tbaa !64
  %58 = load i64, ptr %6, align 8, !tbaa !12
  %59 = shl i64 %58, 3
  store i64 %59, ptr %6, align 8, !tbaa !12
  %60 = load ptr, ptr %4, align 8, !tbaa !61
  %61 = getelementptr inbounds nuw %struct.SHA256state_st, ptr %60, i32 0, i32 1
  %62 = load i32, ptr %61, align 4, !tbaa !65
  %63 = zext i32 %62 to i64
  %64 = add i64 %63, %59
  %65 = trunc i64 %64 to i32
  store i32 %65, ptr %61, align 4, !tbaa !65
  %66 = load ptr, ptr %4, align 8, !tbaa !61
  %67 = getelementptr inbounds nuw %struct.SHA256state_st, ptr %66, i32 0, i32 1
  %68 = load i32, ptr %67, align 4, !tbaa !65
  %69 = load i64, ptr %6, align 8, !tbaa !12
  %70 = trunc i64 %69 to i32
  %71 = icmp ult i32 %68, %70
  br i1 %71, label %72, label %77

72:                                               ; preds = %42
  %73 = load ptr, ptr %4, align 8, !tbaa !61
  %74 = getelementptr inbounds nuw %struct.SHA256state_st, ptr %73, i32 0, i32 2
  %75 = load i32, ptr %74, align 4, !tbaa !64
  %76 = add i32 %75, 1
  store i32 %76, ptr %74, align 4, !tbaa !64
  br label %77

77:                                               ; preds = %72, %42
  br label %78

78:                                               ; preds = %77, %34
  %79 = load i64, ptr %8, align 8, !tbaa !12
  %80 = icmp ne i64 %79, 0
  br i1 %80, label %81, label %86

81:                                               ; preds = %78
  %82 = load ptr, ptr %4, align 8, !tbaa !61
  %83 = load ptr, ptr %7, align 8, !tbaa !10
  %84 = load i64, ptr %8, align 8, !tbaa !12
  %85 = call i32 @SHA256_Update(ptr noundef %82, ptr noundef %83, i64 noundef %84)
  br label %86

86:                                               ; preds = %81, %78
  call void @llvm.lifetime.end.p0(i64 8, ptr %8) #7
  call void @llvm.lifetime.end.p0(i64 8, ptr %7) #7
  ret void
}

; Function Attrs: nounwind uwtable
define internal i32 @aesni_cbc_hmac_sha256_tls1_multiblock_aad(ptr noundef %0, ptr noundef %1) #0 {
  %3 = alloca i32, align 4
  %4 = alloca ptr, align 8
  %5 = alloca ptr, align 8
  %6 = alloca ptr, align 8
  %7 = alloca ptr, align 8
  %8 = alloca i32, align 4
  %9 = alloca i32, align 4
  %10 = alloca i32, align 4
  %11 = alloca i32, align 4
  %12 = alloca i32, align 4
  %13 = alloca i32, align 4
  %14 = alloca i32, align 4
  store ptr %0, ptr %4, align 8, !tbaa !37
  store ptr %1, ptr %5, align 8, !tbaa !37
  call void @llvm.lifetime.start.p0(i64 8, ptr %6) #7
  %15 = load ptr, ptr %4, align 8, !tbaa !37
  store ptr %15, ptr %6, align 8, !tbaa !14
  call void @llvm.lifetime.start.p0(i64 8, ptr %7) #7
  %16 = load ptr, ptr %4, align 8, !tbaa !37
  store ptr %16, ptr %7, align 8, !tbaa !16
  call void @llvm.lifetime.start.p0(i64 4, ptr %8) #7
  store i32 1, ptr %8, align 4, !tbaa !3
  call void @llvm.lifetime.start.p0(i64 4, ptr %9) #7
  call void @llvm.lifetime.start.p0(i64 4, ptr %10) #7
  call void @llvm.lifetime.start.p0(i64 4, ptr %11) #7
  call void @llvm.lifetime.start.p0(i64 4, ptr %12) #7
  call void @llvm.lifetime.start.p0(i64 4, ptr %13) #7
  %17 = load ptr, ptr %5, align 8, !tbaa !37
  %18 = getelementptr inbounds nuw %struct.EVP_CTRL_TLS1_1_MULTIBLOCK_PARAM, ptr %17, i32 0, i32 1
  %19 = load ptr, ptr %18, align 8, !tbaa !54
  %20 = getelementptr inbounds i8, ptr %19, i64 11
  %21 = load i8, ptr %20, align 1, !tbaa !26
  %22 = zext i8 %21 to i32
  %23 = shl i32 %22, 8
  %24 = load ptr, ptr %5, align 8, !tbaa !37
  %25 = getelementptr inbounds nuw %struct.EVP_CTRL_TLS1_1_MULTIBLOCK_PARAM, ptr %24, i32 0, i32 1
  %26 = load ptr, ptr %25, align 8, !tbaa !54
  %27 = getelementptr inbounds i8, ptr %26, i64 12
  %28 = load i8, ptr %27, align 1, !tbaa !26
  %29 = zext i8 %28 to i32
  %30 = or i32 %23, %29
  store i32 %30, ptr %13, align 4, !tbaa !3
  %31 = load ptr, ptr %6, align 8, !tbaa !14
  %32 = getelementptr inbounds nuw %struct.prov_aes_hmac_sha_ctx_st, ptr %31, i32 0, i32 0
  %33 = getelementptr inbounds nuw %struct.prov_cipher_ctx_st, ptr %32, i32 0, i32 11
  %34 = load i8, ptr %33, align 4
  %35 = lshr i8 %34, 1
  %36 = and i8 %35, 1
  %37 = zext i8 %36 to i32
  %38 = icmp ne i32 %37, 0
  br i1 %38, label %39, label %157

39:                                               ; preds = %2
  %40 = load ptr, ptr %5, align 8, !tbaa !37
  %41 = getelementptr inbounds nuw %struct.EVP_CTRL_TLS1_1_MULTIBLOCK_PARAM, ptr %40, i32 0, i32 1
  %42 = load ptr, ptr %41, align 8, !tbaa !54
  %43 = getelementptr inbounds i8, ptr %42, i64 9
  %44 = load i8, ptr %43, align 1, !tbaa !26
  %45 = zext i8 %44 to i32
  %46 = shl i32 %45, 8
  %47 = load ptr, ptr %5, align 8, !tbaa !37
  %48 = getelementptr inbounds nuw %struct.EVP_CTRL_TLS1_1_MULTIBLOCK_PARAM, ptr %47, i32 0, i32 1
  %49 = load ptr, ptr %48, align 8, !tbaa !54
  %50 = getelementptr inbounds i8, ptr %49, i64 10
  %51 = load i8, ptr %50, align 1, !tbaa !26
  %52 = zext i8 %51 to i32
  %53 = or i32 %46, %52
  %54 = icmp slt i32 %53, 770
  br i1 %54, label %55, label %56

55:                                               ; preds = %39
  store i32 -1, ptr %3, align 4
  store i32 1, ptr %14, align 4
  br label %158

56:                                               ; preds = %39
  %57 = load i32, ptr %13, align 4, !tbaa !3
  %58 = icmp ne i32 %57, 0
  br i1 %58, label %59, label %72

59:                                               ; preds = %56
  %60 = load i32, ptr %13, align 4, !tbaa !3
  %61 = icmp ult i32 %60, 4096
  br i1 %61, label %62, label %63

62:                                               ; preds = %59
  store i32 0, ptr %3, align 4
  store i32 1, ptr %14, align 4
  br label %158

63:                                               ; preds = %59
  %64 = load i32, ptr %13, align 4, !tbaa !3
  %65 = icmp uge i32 %64, 8192
  br i1 %65, label %66, label %71

66:                                               ; preds = %63
  %67 = load i32, ptr getelementptr inbounds ([0 x i32], ptr @OPENSSL_ia32cap_P, i64 0, i64 2), align 4, !tbaa !3
  %68 = and i32 %67, 32
  %69 = icmp ne i32 %68, 0
  br i1 %69, label %70, label %71

70:                                               ; preds = %66
  store i32 2, ptr %8, align 4, !tbaa !3
  br label %71

71:                                               ; preds = %70, %66, %63
  br label %88

72:                                               ; preds = %56
  %73 = load ptr, ptr %5, align 8, !tbaa !37
  %74 = getelementptr inbounds nuw %struct.EVP_CTRL_TLS1_1_MULTIBLOCK_PARAM, ptr %73, i32 0, i32 3
  %75 = load i32, ptr %74, align 8, !tbaa !56
  %76 = udiv i32 %75, 4
  store i32 %76, ptr %8, align 4, !tbaa !3
  %77 = icmp ne i32 %76, 0
  br i1 %77, label %78, label %86

78:                                               ; preds = %72
  %79 = load i32, ptr %8, align 4, !tbaa !3
  %80 = icmp ule i32 %79, 2
  br i1 %80, label %81, label %86

81:                                               ; preds = %78
  %82 = load ptr, ptr %5, align 8, !tbaa !37
  %83 = getelementptr inbounds nuw %struct.EVP_CTRL_TLS1_1_MULTIBLOCK_PARAM, ptr %82, i32 0, i32 2
  %84 = load i64, ptr %83, align 8, !tbaa !57
  %85 = trunc i64 %84 to i32
  store i32 %85, ptr %13, align 4, !tbaa !3
  br label %87

86:                                               ; preds = %78, %72
  store i32 -1, ptr %3, align 4
  store i32 1, ptr %14, align 4
  br label %158

87:                                               ; preds = %81
  br label %88

88:                                               ; preds = %87, %71
  %89 = load ptr, ptr %7, align 8, !tbaa !16
  %90 = getelementptr inbounds nuw %struct.prov_aes_hmac_sha256_ctx_st, ptr %89, i32 0, i32 3
  %91 = load ptr, ptr %7, align 8, !tbaa !16
  %92 = getelementptr inbounds nuw %struct.prov_aes_hmac_sha256_ctx_st, ptr %91, i32 0, i32 1
  call void @llvm.memcpy.p0.p0.i64(ptr align 8 %90, ptr align 8 %92, i64 112, i1 false), !tbaa.struct !25
  %93 = load ptr, ptr %7, align 8, !tbaa !16
  %94 = getelementptr inbounds nuw %struct.prov_aes_hmac_sha256_ctx_st, ptr %93, i32 0, i32 3
  %95 = load ptr, ptr %5, align 8, !tbaa !37
  %96 = getelementptr inbounds nuw %struct.EVP_CTRL_TLS1_1_MULTIBLOCK_PARAM, ptr %95, i32 0, i32 1
  %97 = load ptr, ptr %96, align 8, !tbaa !54
  call void @sha256_update(ptr noundef %94, ptr noundef %97, i64 noundef 13)
  %98 = load i32, ptr %8, align 4, !tbaa !3
  %99 = mul i32 4, %98
  store i32 %99, ptr %9, align 4, !tbaa !3
  %100 = load i32, ptr %8, align 4, !tbaa !3
  %101 = add i32 %100, 1
  store i32 %101, ptr %8, align 4, !tbaa !3
  %102 = load i32, ptr %13, align 4, !tbaa !3
  %103 = load i32, ptr %8, align 4, !tbaa !3
  %104 = lshr i32 %102, %103
  store i32 %104, ptr %10, align 4, !tbaa !3
  %105 = load i32, ptr %13, align 4, !tbaa !3
  %106 = load i32, ptr %10, align 4, !tbaa !3
  %107 = add i32 %105, %106
  %108 = load i32, ptr %10, align 4, !tbaa !3
  %109 = load i32, ptr %8, align 4, !tbaa !3
  %110 = shl i32 %108, %109
  %111 = sub i32 %107, %110
  store i32 %111, ptr %11, align 4, !tbaa !3
  %112 = load i32, ptr %11, align 4, !tbaa !3
  %113 = load i32, ptr %10, align 4, !tbaa !3
  %114 = icmp ugt i32 %112, %113
  br i1 %114, label %115, label %130

115:                                              ; preds = %88
  %116 = load i32, ptr %11, align 4, !tbaa !3
  %117 = add i32 %116, 13
  %118 = add i32 %117, 9
  %119 = urem i32 %118, 64
  %120 = load i32, ptr %9, align 4, !tbaa !3
  %121 = sub i32 %120, 1
  %122 = icmp ult i32 %119, %121
  br i1 %122, label %123, label %130

123:                                              ; preds = %115
  %124 = load i32, ptr %10, align 4, !tbaa !3
  %125 = add i32 %124, 1
  store i32 %125, ptr %10, align 4, !tbaa !3
  %126 = load i32, ptr %9, align 4, !tbaa !3
  %127 = sub i32 %126, 1
  %128 = load i32, ptr %11, align 4, !tbaa !3
  %129 = sub i32 %128, %127
  store i32 %129, ptr %11, align 4, !tbaa !3
  br label %130

130:                                              ; preds = %123, %115, %88
  %131 = load i32, ptr %10, align 4, !tbaa !3
  %132 = add i32 %131, 32
  %133 = add i32 %132, 16
  %134 = and i32 %133, -16
  %135 = add i32 21, %134
  store i32 %135, ptr %12, align 4, !tbaa !3
  %136 = load i32, ptr %12, align 4, !tbaa !3
  %137 = load i32, ptr %8, align 4, !tbaa !3
  %138 = shl i32 %136, %137
  %139 = load i32, ptr %12, align 4, !tbaa !3
  %140 = sub i32 %138, %139
  store i32 %140, ptr %12, align 4, !tbaa !3
  %141 = load i32, ptr %11, align 4, !tbaa !3
  %142 = add i32 %141, 32
  %143 = add i32 %142, 16
  %144 = and i32 %143, -16
  %145 = add i32 21, %144
  %146 = load i32, ptr %12, align 4, !tbaa !3
  %147 = add i32 %146, %145
  store i32 %147, ptr %12, align 4, !tbaa !3
  %148 = load i32, ptr %9, align 4, !tbaa !3
  %149 = load ptr, ptr %5, align 8, !tbaa !37
  %150 = getelementptr inbounds nuw %struct.EVP_CTRL_TLS1_1_MULTIBLOCK_PARAM, ptr %149, i32 0, i32 3
  store i32 %148, ptr %150, align 8, !tbaa !56
  %151 = load i32, ptr %9, align 4, !tbaa !3
  %152 = load ptr, ptr %6, align 8, !tbaa !14
  %153 = getelementptr inbounds nuw %struct.prov_aes_hmac_sha_ctx_st, ptr %152, i32 0, i32 5
  store i32 %151, ptr %153, align 8, !tbaa !58
  %154 = load i32, ptr %12, align 4, !tbaa !3
  %155 = load ptr, ptr %6, align 8, !tbaa !14
  %156 = getelementptr inbounds nuw %struct.prov_aes_hmac_sha_ctx_st, ptr %155, i32 0, i32 6
  store i32 %154, ptr %156, align 4, !tbaa !59
  store i32 1, ptr %3, align 4
  store i32 1, ptr %14, align 4
  br label %158

157:                                              ; preds = %2
  store i32 -1, ptr %3, align 4
  store i32 1, ptr %14, align 4
  br label %158

158:                                              ; preds = %157, %130, %86, %62, %55
  call void @llvm.lifetime.end.p0(i64 4, ptr %13) #7
  call void @llvm.lifetime.end.p0(i64 4, ptr %12) #7
  call void @llvm.lifetime.end.p0(i64 4, ptr %11) #7
  call void @llvm.lifetime.end.p0(i64 4, ptr %10) #7
  call void @llvm.lifetime.end.p0(i64 4, ptr %9) #7
  call void @llvm.lifetime.end.p0(i64 4, ptr %8) #7
  call void @llvm.lifetime.end.p0(i64 8, ptr %7) #7
  call void @llvm.lifetime.end.p0(i64 8, ptr %6) #7
  %159 = load i32, ptr %3, align 4
  ret i32 %159
}