; Function Attrs: nounwind uwtable
define internal range(i32 -1, 2) i32 @aesni_cbc_hmac_sha256_tls1_multiblock_aad(ptr noundef %0, ptr noundef captures(none) %1) #0 {
  %3 = getelementptr inbounds nuw i8, ptr %1, i64 8
  %4 = load ptr, ptr %3, align 8, !tbaa !47
  %5 = getelementptr inbounds nuw i8, ptr %4, i64 11
  %6 = load i8, ptr %5, align 1, !tbaa !18
  %7 = zext i8 %6 to i32
  %8 = shl nuw nsw i32 %7, 8
  %9 = getelementptr inbounds nuw i8, ptr %4, i64 12
  %10 = load i8, ptr %9, align 1, !tbaa !18
  %11 = zext i8 %10 to i32
  %12 = or disjoint i32 %8, %11
  %13 = getelementptr inbounds nuw i8, ptr %0, i64 108
  %14 = load i8, ptr %13, align 4
  %15 = and i8 %14, 2
  %.not = icmp eq i8 %15, 0
  br i1 %.not, label %82, label %16

16:                                               ; preds = %2
  %17 = getelementptr inbounds nuw i8, ptr %4, i64 9
  %18 = load i8, ptr %17, align 1, !tbaa !18
  %19 = zext i8 %18 to i32
  %20 = shl nuw nsw i32 %19, 8
  %21 = getelementptr inbounds nuw i8, ptr %4, i64 10
  %22 = load i8, ptr %21, align 1, !tbaa !18
  %23 = zext i8 %22 to i32
  %24 = or disjoint i32 %20, %23
  %25 = icmp samesign ult i32 %24, 770
  br i1 %25, label %82, label %26

26:                                               ; preds = %16
  %.not55 = icmp eq i32 %12, 0
  br i1 %.not55, label %34, label %27

27:                                               ; preds = %26
  %28 = icmp ult i8 %6, 16
  br i1 %28, label %82, label %29

29:                                               ; preds = %27
  %30 = icmp ugt i8 %6, 31
  br i1 %30, label %31, label %43

31:                                               ; preds = %29
  %32 = load i32, ptr getelementptr inbounds nuw (i8, ptr @OPENSSL_ia32cap_P, i64 8), align 4, !tbaa !3
  %33 = and i32 %32, 32
  %.not56 = icmp eq i32 %33, 0
  %spec.select = select i1 %.not56, i32 1, i32 2
  br label %43

34:                                               ; preds = %26
  %35 = getelementptr inbounds nuw i8, ptr %1, i64 24
  %36 = load i32, ptr %35, align 8, !tbaa !49
  %37 = add i32 %36, -4
  %or.cond = icmp ult i32 %37, 8
  br i1 %or.cond, label %38, label %82

38:                                               ; preds = %34
  %39 = lshr i32 %36, 2
  %40 = getelementptr inbounds nuw i8, ptr %1, i64 16
  %41 = load i64, ptr %40, align 8, !tbaa !50
  %42 = trunc i64 %41 to i32
  br label %43

43:                                               ; preds = %31, %29, %38
  %.048 = phi i32 [ 1, %29 ], [ %39, %38 ], [ %spec.select, %31 ]
  %.0 = phi i32 [ %12, %29 ], [ %42, %38 ], [ %12, %31 ]
  %44 = getelementptr inbounds nuw i8, ptr %0, i64 728
  %45 = getelementptr inbounds nuw i8, ptr %0, i64 504
  tail call void @llvm.memcpy.p0.p0.i64(ptr noundef nonnull align 8 dereferenceable(112) %44, ptr noundef nonnull align 8 dereferenceable(112) %45, i64 112, i1 false), !tbaa.struct !17
  %46 = load ptr, ptr %3, align 8, !tbaa !47
  %47 = getelementptr inbounds nuw i8, ptr %0, i64 832
  %48 = load i32, ptr %47, align 4, !tbaa !29
  %.not.i = icmp eq i32 %48, 0
  br i1 %.not.i, label %.thread60, label %49

49:                                               ; preds = %43
  %50 = zext i32 %48 to i64
  %51 = sub nsw i64 64, %50
  %spec.select.i = tail call i64 @llvm.umin.i64(i64 %51, i64 13)
  %52 = tail call i32 @SHA256_Update(ptr noundef nonnull %44, ptr noundef %46, i64 noundef %spec.select.i) #8
  %53 = getelementptr inbounds nuw i8, ptr %46, i64 %spec.select.i
  %54 = sub nuw nsw i64 13, %spec.select.i
  %.not40.i = icmp ugt i64 %51, 12
  br i1 %.not40.i, label %sha256_update.exit, label %.thread60

.thread60:                                        ; preds = %43, %49
  %.1.i63 = phi ptr [ %53, %49 ], [ %46, %43 ]
  %55 = phi i64 [ %54, %49 ], [ 13, %43 ]
  %56 = tail call i32 @SHA256_Update(ptr noundef nonnull %44, ptr noundef %.1.i63, i64 noundef %55) #8
  br label %sha256_update.exit

sha256_update.exit:                               ; preds = %49, %.thread60
  %57 = shl nuw nsw i32 %.048, 2
  %58 = add nuw nsw i32 %.048, 1
  %59 = lshr i32 %.0, %58
  %60 = add i32 %59, %.0
  %61 = shl i32 %59, %58
  %62 = sub i32 %60, %61
  %63 = icmp ugt i32 %62, %59
  br i1 %63, label %64, label %72

64:                                               ; preds = %sha256_update.exit
  %65 = add i32 %62, 22
  %66 = and i32 %65, 63
  %67 = add nsw i32 %57, -1
  %68 = icmp samesign ult i32 %66, %67
  br i1 %68, label %69, label %72

69:                                               ; preds = %64
  %70 = add nuw nsw i32 %59, 1
  %71 = sub i32 %62, %67
  br label %72

72:                                               ; preds = %69, %64, %sha256_update.exit
  %.047 = phi i32 [ %70, %69 ], [ %59, %64 ], [ %59, %sha256_update.exit ]
  %.046 = phi i32 [ %71, %69 ], [ %62, %64 ], [ %62, %sha256_update.exit ]
  %73 = and i32 %.047, -16
  %74 = add nuw nsw i32 %73, 69
  %75 = shl i32 %74, %58
  %76 = and i32 %.046, -16
  %77 = sub i32 %76, %73
  %78 = add i32 %77, %75
  %79 = getelementptr inbounds nuw i8, ptr %1, i64 24
  store i32 %57, ptr %79, align 8, !tbaa !49
  %80 = getelementptr inbounds nuw i8, ptr %0, i64 472
  store i32 %57, ptr %80, align 8, !tbaa !51
  %81 = getelementptr inbounds nuw i8, ptr %0, i64 476
  store i32 %78, ptr %81, align 4, !tbaa !52
  br label %82

82:                                               ; preds = %2, %34, %27, %16, %72
  %.045 = phi i32 [ 1, %72 ], [ -1, %16 ], [ 0, %27 ], [ -1, %34 ], [ -1, %2 ]
  ret i32 %.045
}